target datalayout = "e-m:e-p270:32:32-p271:32:32-p272:64:64-i64:64-i128:128-f80:128-n8:16:32:64-S128"
target triple = "x86_64-pc-linux-gnu"

@OnigEncAsciiCtypeTable = external constant [0 x i16], align 2
@PropertyList = internal constant [6 x ptr] [ptr @CR_Hiragana, ptr @CR_Katakana, ptr @CR_Han, ptr @CR_Latin, ptr @CR_Greek, ptr @CR_Cyrillic], align 16

; Function Attrs: nounwind sspstrong uwtable
define internal i32 @code_to_mbclen(i32 noundef %0, ptr noundef %1) #0 {
  %3 = alloca i32, align 4
  %4 = alloca i32, align 4
  %5 = alloca ptr, align 8
  store i32 %0, ptr %4, align 4, !tbaa !17
  store ptr %1, ptr %5, align 8, !tbaa !14
  %6 = load i32, ptr %4, align 4, !tbaa !17
  %7 = icmp ult i32 %6, 128
  br i1 %7, label %8, label %9

8:                                                ; preds = %2
  store i32 1, ptr %3, align 4
  br label %24

9:                                                ; preds = %2
  %10 = load i32, ptr %4, align 4, !tbaa !17
  %11 = icmp ugt i32 %10, 16777215
  br i1 %11, label %12, label %13

12:                                               ; preds = %9
  store i32 -401, ptr %3, align 4
  br label %24

13:                                               ; preds = %9
  %14 = load i32, ptr %4, align 4, !tbaa !17
  %15 = and i32 %14, -8355712
  %16 = icmp eq i32 %15, 8421504
  br i1 %16, label %17, label %18

17:                                               ; preds = %13
  store i32 3, ptr %3, align 4
  br label %24

18:                                               ; preds = %13
  %19 = load i32, ptr %4, align 4, !tbaa !17
  %20 = and i32 %19, -32640
  %21 = icmp eq i32 %20, 32896
  br i1 %21, label %22, label %23

22:                                               ; preds = %18
  store i32 2, ptr %3, align 4
  br label %24

23:                                               ; preds = %18
  store i32 -400, ptr %3, align 4
  br label %24

24:                                               ; preds = %23, %22, %17, %12, %8
  %25 = load i32, ptr %3, align 4
  ret i32 %25
}

; Function Attrs: nounwind sspstrong uwtable
define internal i32 @is_code_ctype(i32 noundef %0, i32 noundef %1, ptr noundef %2) #0 {
  %4 = alloca i32, align 4
  %5 = alloca i32, align 4
  %6 = alloca i32, align 4
  %7 = alloca ptr, align 8
  store i32 %0, ptr %5, align 4, !tbaa !17
  store i32 %1, ptr %6, align 4, !tbaa !17
  store ptr %2, ptr %7, align 8, !tbaa !14
  %8 = load i32, ptr %6, align 4, !tbaa !17
  %9 = icmp ule i32 %8, 14
  br i1 %9, label %10, label %41

10:                                               ; preds = %3
  %11 = load i32, ptr %5, align 4, !tbaa !17
  %12 = icmp ult i32 %11, 128
  br i1 %12, label %13, label %24

13:                                               ; preds = %10
  %14 = load i32, ptr %5, align 4, !tbaa !17
  %15 = zext i32 %14 to i64
  %16 = getelementptr inbounds nuw [0 x i16], ptr @OnigEncAsciiCtypeTable, i64 0, i64 %15
  %17 = load i16, ptr %16, align 2, !tbaa !30
  %18 = zext i16 %17 to i32
  %19 = load i32, ptr %6, align 4, !tbaa !17
  %20 = shl i32 1, %19
  %21 = and i32 %18, %20
  %22 = icmp ne i32 %21, 0
  %23 = zext i1 %22 to i32
  store i32 %23, ptr %4, align 4
  br label %55

24:                                               ; preds = %10
  %25 = load i32, ptr %6, align 4, !tbaa !17
  %26 = icmp eq i32 %25, 12
  br i1 %26, label %33, label %27

27:                                               ; preds = %24
  %28 = load i32, ptr %6, align 4, !tbaa !17
  %29 = icmp eq i32 %28, 5
  br i1 %29, label %33, label %30

30:                                               ; preds = %27
  %31 = load i32, ptr %6, align 4, !tbaa !17
  %32 = icmp eq i32 %31, 7
  br i1 %32, label %33, label %39

33:                                               ; preds = %30, %27, %24
  %34 = load i32, ptr %5, align 4, !tbaa !17
  %35 = load ptr, ptr %7, align 8, !tbaa !14
  %36 = call i32 @code_to_mbclen(i32 noundef %34, ptr noundef %35)
  %37 = icmp sgt i32 %36, 1
  %38 = select i1 %37, i32 1, i32 0
  store i32 %38, ptr %4, align 4
  br label %55

39:                                               ; preds = %30
  br label %40

40:                                               ; preds = %39
  br label %54

41:                                               ; preds = %3
  %42 = load i32, ptr %6, align 4, !tbaa !17
  %43 = sub i32 %42, 15
  store i32 %43, ptr %6, align 4, !tbaa !17
  %44 = load i32, ptr %6, align 4, !tbaa !17
  %45 = icmp uge i32 %44, 6
  br i1 %45, label %46, label %47

46:                                               ; preds = %41
  store i32 -6, ptr %4, align 4
  br label %55

47:                                               ; preds = %41
  %48 = load i32, ptr %6, align 4, !tbaa !17
  %49 = zext i32 %48 to i64
  %50 = getelementptr inbounds nuw [6 x ptr], ptr @PropertyList, i64 0, i64 %49
  %51 = load ptr, ptr %50, align 8, !tbaa !32
  %52 = load i32, ptr %5, align 4, !tbaa !17
  %53 = call i32 @onig_is_in_code_range(ptr noundef %51, i32 noundef %52)
  store i32 %53, ptr %4, align 4
  br label %55

54:                                               ; preds = %40
  store i32 0, ptr %4, align 4
  br label %55

55:                                               ; preds = %54, %47, %46, %33, %13
  %56 = load i32, ptr %4, align 4
  ret i32 %56
}