; Function Attrs: nounwind sspstrong uwtable
define internal i32 @is_code_ctype(i32 noundef %0, i32 noundef %1, ptr readnone captures(none) %2) #0 {
  %4 = icmp ult i32 %1, 15
  br i1 %4, label %5, label %26

5:                                                ; preds = %3
  %6 = icmp ult i32 %0, 128
  br i1 %6, label %7, label %14

7:                                                ; preds = %5
  %8 = zext nneg i32 %0 to i64
  %9 = getelementptr inbounds nuw [0 x i16], ptr @OnigEncAsciiCtypeTable, i64 0, i64 %8
  %10 = load i16, ptr %9, align 2, !tbaa !22
  %11 = zext i16 %10 to i32
  %12 = lshr i32 %11, %1
  %13 = and i32 %12, 1
  br label %code_to_mbclen.exit

14:                                               ; preds = %5
  %15 = icmp ne i32 %1, 12
  %16 = and i32 %1, 13
  %17 = icmp ne i32 %16, 5
  %or.cond3.not21 = and i1 %15, %17
  %18 = icmp ugt i32 %0, 16777215
  %or.cond = or i1 %18, %or.cond3.not21
  br i1 %or.cond, label %code_to_mbclen.exit, label %19

19:                                               ; preds = %14
  %20 = and i32 %0, 8421504
  %21 = icmp eq i32 %20, 8421504
  br i1 %21, label %code_to_mbclen.exit, label %22

22:                                               ; preds = %19
  %23 = and i32 %0, 16744576
  %24 = icmp eq i32 %23, 32896
  %25 = zext i1 %24 to i32
  br label %code_to_mbclen.exit

26:                                               ; preds = %3
  %27 = add i32 %1, -15
  %28 = icmp ugt i32 %27, 5
  br i1 %28, label %code_to_mbclen.exit, label %29

29:                                               ; preds = %26
  %30 = zext nneg i32 %27 to i64
  %31 = getelementptr inbounds nuw [6 x ptr], ptr @PropertyList, i64 0, i64 %30
  %32 = load ptr, ptr %31, align 8, !tbaa !24
  %33 = tail call i32 @onig_is_in_code_range(ptr noundef %32, i32 noundef %0) #8
  br label %code_to_mbclen.exit

code_to_mbclen.exit:                              ; preds = %22, %19, %14, %26, %29, %7
  %.0 = phi i32 [ %13, %7 ], [ %33, %29 ], [ -6, %26 ], [ 0, %14 ], [ 1, %19 ], [ %25, %22 ]
  ret i32 %.0
}